Certificate:
    Data:
        Version: 3 (0x2)
        Serial Number: 1 (0x1)
    Signature Algorithm: sha512WithRSAEncryption
        Issuer: C=DE, ST=Lower Saxony, L=Peine, O=Bremersee, OU=Eixe, CN=BremerseeCA
        Validity
            Not Before: Dec 15 14:39:15 2019 GMT
            Not After : Dec 12 14:39:15 2044 GMT
        Subject: C=DE, ST=Lower Saxony, L=Peine, O=Bremersee, OU=Docker, CN=DockerCA
        Subject Public Key Info:
            Public Key Algorithm: rsaEncryption
                Public-Key: (4096 bit)
                Modulus:
                    00:c9:a6:77:2e:c1:68:1e:b1:d2:6b:39:24:fd:ce:
                    b1:2a:8a:82:e8:da:e4:bf:98:14:da:2e:99:08:1e:
                    90:73:e5:3b:66:2b:01:93:06:a3:67:ba:f8:4b:b1:
                    05:82:96:60:7c:ed:8b:08:8c:40:91:ae:8c:bb:3f:
                    c6:d4:6b:8c:86:39:3a:bd:97:40:f4:8b:12:8e:5b:
                    3f:9a:57:d0:20:e3:56:40:21:8d:6e:ce:82:27:a1:
                    b5:db:a5:a0:e1:d1:88:03:a5:70:5b:92:37:5f:27:
                    a5:27:57:59:21:4f:6a:76:73:2a:74:c0:de:77:01:
                    68:35:b5:a4:7e:98:b2:15:0a:13:25:32:c6:20:d8:
                    9b:0a:83:a0:10:50:12:e0:c6:e2:c9:bd:b2:16:b4:
                    82:11:b3:3c:aa:03:6c:56:59:31:de:5d:ad:f1:3b:
                    b7:3c:95:0a:f9:9e:6e:34:a7:51:55:2a:a1:47:03:
                    52:0a:e3:84:6f:72:9a:c8:4d:0d:9e:da:bf:ba:6d:
                    1a:30:8e:33:e1:99:ae:7e:68:20:14:8d:d2:90:e8:
                    d3:49:b4:9c:cb:3d:c7:af:94:3e:0d:a2:09:55:d8:
                    d0:55:25:77:6d:c5:17:91:3d:89:02:68:db:7f:cc:
                    25:5d:2a:db:f8:ed:69:ee:0d:56:57:c3:df:50:37:
                    2f:6a:be:48:51:d9:84:af:d1:4c:3d:9b:c4:1f:50:
                    d6:ec:51:cc:f0:57:08:de:a4:8e:dd:4a:d5:c6:4b:
                    f9:14:5b:3e:d2:b9:d5:b2:b1:4c:ee:a1:dd:3f:30:
                    98:79:fc:d7:2f:a3:29:13:71:3e:4a:6b:0d:e7:ed:
                    dd:c2:40:e1:78:eb:ab:10:0d:17:19:9d:f2:6d:ad:
                    dd:dc:1c:a7:68:5d:e2:73:59:0e:d9:1f:2d:e2:28:
                    d1:ee:2c:80:16:7b:16:31:c3:e5:01:08:3d:18:2b:
                    9d:c5:47:33:5b:bf:d3:8f:2a:05:8f:e3:1c:e5:6e:
                    d0:bb:a0:fa:bd:e8:84:23:d8:15:77:a0:d3:1d:0e:
                    1d:6f:8e:6b:1c:4f:f8:44:c0:33:01:54:77:a2:51:
                    f8:6c:4d:3f:fc:bc:0f:b4:de:44:11:ef:db:81:1b:
                    aa:67:79:99:70:08:1c:87:a3:63:8d:ae:40:cf:56:
                    a5:e0:f8:65:94:81:cc:de:f3:50:af:36:d5:7a:31:
                    f7:21:a5:63:6f:72:fd:94:44:d4:9c:96:57:f6:a0:
                    51:f0:07:b1:2c:1d:50:d0:45:06:99:55:c2:ee:96:
                    6f:d9:22:60:1c:59:63:e3:50:b4:2e:7c:66:2b:3c:
                    8d:5c:57:5b:f2:af:68:4b:68:6d:6f:1f:d4:c6:39:
                    4b:e4:19
                Exponent: 65537 (0x10001)
        X509v3 extensions:
            X509v3 Subject Key Identifier: 
                94:A0:15:5B:49:4B:7F:3A:85:55:68:B7:F0:EA:6D:D5:67:1D:65:5C
            X509v3 Authority Key Identifier: 
                keyid:FF:F8:F1:18:C7:57:04:03:6E:D8:44:9C:6E:AE:89:A7:7D:12:A7:CF

            X509v3 Basic Constraints: critical
                CA:TRUE, pathlen:0
            X509v3 Key Usage: 
                Certificate Sign, CRL Sign
            X509v3 Subject Alternative Name: 
                <EMPTY>

            Authority Information Access: 
                CA Issuers - URI:http://bremersee.github.io/ca/DockerCA.html

            X509v3 CRL Distribution Points: 

                Full Name:
                  URI:http://bremersee.github.io/ca/DockerCA.crl

    Signature Algorithm: sha512WithRSAEncryption
         0c:25:1c:d5:69:dd:89:64:f5:39:c6:44:05:c3:d0:ba:ba:ac:
         1c:dd:f2:3e:75:f6:62:5c:0f:f7:7d:21:79:2e:af:e8:2a:ff:
         a7:7d:b9:44:a1:e4:75:04:77:26:d9:65:93:ad:b7:3b:01:6e:
         ca:c8:a3:a5:67:1e:c7:f9:a0:d5:02:57:35:cf:c8:75:3b:05:
         63:c7:69:07:cd:9c:c3:ba:ec:53:2d:bc:94:a7:48:d2:fb:35:
         c1:8e:96:ea:59:66:4d:32:59:55:3d:01:6a:73:17:19:41:de:
         12:29:79:04:97:72:19:c9:40:a5:ff:80:35:a6:fd:2a:b8:eb:
         f5:1c:6d:0c:e9:77:49:59:80:14:11:9c:b7:2d:73:fb:62:b3:
         9a:61:13:f6:57:f0:52:8d:8b:10:f4:fe:e3:9d:00:dc:07:7f:
         79:f8:96:da:6d:18:71:a9:60:c8:15:59:fc:05:18:fa:0d:63:
         7d:3e:47:45:d1:9d:3f:a2:56:32:6a:b2:21:74:f3:82:a0:3d:
         fd:52:5b:cb:8f:7a:be:52:55:05:3f:2e:16:4a:8c:f9:5e:0f:
         8b:47:b0:de:b0:4e:d3:f8:c6:74:b5:04:f1:ba:89:36:ee:cb:
         3e:92:a4:56:f4:e8:80:0c:a5:bb:e0:c0:7a:c3:d7:5b:03:65:
         1d:0f:f7:67:8c:85:0c:5a:92:e9:59:09:2d:47:53:5c:85:83:
         b3:bb:28:6c:96:69:56:6b:9a:01:2b:fa:16:72:76:80:53:b9:
         df:a0:85:dc:ba:d1:7a:d8:22:68:9e:d3:86:f0:d7:56:7e:06:
         1a:7a:27:95:f9:8f:4d:49:2c:79:ab:69:b8:ca:1a:80:e9:ab:
         bf:02:7c:a9:51:f1:d6:c6:b1:83:8c:75:cf:17:3e:4c:49:e8:
         36:de:98:99:c4:d1:aa:f1:49:d0:89:91:93:62:86:84:63:93:
         93:f1:cb:60:f1:7b:80:9d:00:95:1a:14:8a:4a:07:a7:73:51:
         bd:0e:f2:ce:02:96:73:8e:fc:25:9e:93:30:29:02:c3:c2:19:
         d5:0d:e3:6d:02:36:d8:ff:68:8f:da:a4:bd:af:a5:eb:10:7d:
         c5:28:1f:b1:9b:31:77:3f:d5:0e:04:d2:97:77:e2:4a:8a:e3:
         76:fc:f6:19:e5:19:9f:96:d6:17:ab:7c:1d:13:bc:09:ad:fb:
         82:15:72:0a:f6:f7:2c:ca:5e:25:d1:b8:cb:b5:85:a9:83:1f:
         d2:70:fb:18:ce:fe:06:f9:fc:c1:e6:a4:a1:b6:54:22:26:6e:
         1a:3a:bc:ff:52:d9:40:62:e5:33:ee:db:f6:cd:a7:c1:c1:70:
         d8:46:53:15:fd:e9:c2:be
-----BEGIN CERTIFICATE-----
MIIGSjCCBDKgAwIBAgIBATANBgkqhkiG9w0BAQ0FADBtMQswCQYDVQQGEwJERTEV
MBMGA1UECAwMTG93ZXIgU2F4b255MQ4wDAYDVQQHDAVQZWluZTESMBAGA1UECgwJ
QnJlbWVyc2VlMQ0wCwYDVQQLDARFaXhlMRQwEgYDVQQDDAtCcmVtZXJzZWVDQTAe
Fw0xOTEyMTUxNDM5MTVaFw00NDEyMTIxNDM5MTVaMGwxCzAJBgNVBAYTAkRFMRUw
EwYDVQQIDAxMb3dlciBTYXhvbnkxDjAMBgNVBAcMBVBlaW5lMRIwEAYDVQQKDAlC
cmVtZXJzZWUxDzANBgNVBAsMBkRvY2tlcjERMA8GA1UEAwwIRG9ja2VyQ0EwggIi
MA0GCSqGSIb3DQEBAQUAA4ICDwAwggIKAoICAQDJpncuwWgesdJrOST9zrEqioLo
2uS/mBTaLpkIHpBz5TtmKwGTBqNnuvhLsQWClmB87YsIjECRroy7P8bUa4yGOTq9
l0D0ixKOWz+aV9Ag41ZAIY1uzoInobXbpaDh0YgDpXBbkjdfJ6UnV1khT2p2cyp0
wN53AWg1taR+mLIVChMlMsYg2JsKg6AQUBLgxuLJvbIWtIIRszyqA2xWWTHeXa3x
O7c8lQr5nm40p1FVKqFHA1IK44RvcprITQ2e2r+6bRowjjPhma5+aCAUjdKQ6NNJ
tJzLPcevlD4NoglV2NBVJXdtxReRPYkCaNt/zCVdKtv47WnuDVZXw99QNy9qvkhR
2YSv0Uw9m8QfUNbsUczwVwjepI7dStXGS/kUWz7SudWysUzuod0/MJh5/NcvoykT
cT5Kaw3n7d3CQOF466sQDRcZnfJtrd3cHKdoXeJzWQ7ZHy3iKNHuLIAWexYxw+UB
CD0YK53FRzNbv9OPKgWP4xzlbtC7oPq96IQj2BV3oNMdDh1vjmscT/hEwDMBVHei
UfhsTT/8vA+03kQR79uBG6pneZlwCByHo2ONrkDPVqXg+GWUgcze81CvNtV6Mfch
pWNvcv2URNScllf2oFHwB7EsHVDQRQaZVcLulm/ZImAcWWPjULQufGYrPI1cV1vy
r2hLaG1vH9TGOUvkGQIDAQABo4H1MIHyMB0GA1UdDgQWBBSUoBVbSUt/OoVVaLfw
6m3VZx1lXDAfBgNVHSMEGDAWgBT/+PEYx1cEA27YRJxuromnfRKnzzASBgNVHRMB
Af8ECDAGAQH/AgEAMAsGA1UdDwQEAwIBBjAJBgNVHREEAjAAMEcGCCsGAQUFBwEB
BDswOTA3BggrBgEFBQcwAoYraHR0cDovL2JyZW1lcnNlZS5naXRodWIuaW8vY2Ev
RG9ja2VyQ0EuaHRtbDA7BgNVHR8ENDAyMDCgLqAshipodHRwOi8vYnJlbWVyc2Vl
LmdpdGh1Yi5pby9jYS9Eb2NrZXJDQS5jcmwwDQYJKoZIhvcNAQENBQADggIBAAwl
HNVp3Ylk9TnGRAXD0Lq6rBzd8j519mJcD/d9IXkur+gq/6d9uUSh5HUEdybZZZOt
tzsBbsrIo6VnHsf5oNUCVzXPyHU7BWPHaQfNnMO67FMtvJSnSNL7NcGOlupZZk0y
WVU9AWpzFxlB3hIpeQSXchnJQKX/gDWm/Sq46/UcbQzpd0lZgBQRnLctc/tis5ph
E/ZX8FKNixD0/uOdANwHf3n4ltptGHGpYMgVWfwFGPoNY30+R0XRnT+iVjJqsiF0
84KgPf1SW8uPer5SVQU/LhZKjPleD4tHsN6wTtP4xnS1BPG6iTbuyz6SpFb06IAM
pbvgwHrD11sDZR0P92eMhQxakulZCS1HU1yFg7O7KGyWaVZrmgEr+hZydoBTud+g
hdy60XrYImie04bw11Z+Bhp6J5X5j01JLHmrabjKGoDpq78CfKlR8dbGsYOMdc8X
PkxJ6DbemJnE0arxSdCJkZNihoRjk5Pxy2Dxe4CdAJUaFIpKB6dzUb0O8s4ClnOO
/CWekzApAsPCGdUN420CNtj/aI/apL2vpesQfcUoH7GbMXc/1Q4E0pd34kqK43b8
9hnlGZ+W1herfB0TvAmt+4IVcgr29yzKXiXRuMu1hamDH9Jw+xjO/gb5/MHmpKG2
VCImbho6vP9S2UBi5TPu2/bNp8HBcNhGUxX96cK+
-----END CERTIFICATE-----
